target datalayout = "e-m:e-p270:32:32-p271:32:32-p272:64:64-i64:64-i128:128-f80:128-n8:16:32:64-S128"
target triple = "x86_64-pc-linux-gnu"

%struct.s_x2 = type { i32, i32, ptr, ptr }
%struct.s_x2node = type { ptr, ptr, ptr, ptr }

@x2a = internal global ptr null, align 8

; Function Attrs: nounwind null_pointer_is_valid sspstrong uwtable
define hidden ptr @Symbol_Nth(i32 noundef %0) #2 {
  %2 = alloca i32, align 4
  %3 = alloca ptr, align 8
  store i32 %0, ptr %2, align 4
  call void @llvm.lifetime.start.p0(i64 8, ptr %3) #18
  %4 = load ptr, ptr @x2a, align 8
  %5 = icmp ne ptr %4, null
  br i1 %5, label %6, label %25

6:                                                ; preds = %1
  %7 = load i32, ptr %2, align 4
  %8 = icmp sgt i32 %7, 0
  br i1 %8, label %9, label %25

9:                                                ; preds = %6
  %10 = load i32, ptr %2, align 4
  %11 = load ptr, ptr @x2a, align 8
  %12 = getelementptr inbounds nuw %struct.s_x2, ptr %11, i32 0, i32 1
  %13 = load i32, ptr %12, align 4
  %14 = icmp sle i32 %10, %13
  br i1 %14, label %15, label %25

15:                                               ; preds = %9
  %16 = load ptr, ptr @x2a, align 8
  %17 = getelementptr inbounds nuw %struct.s_x2, ptr %16, i32 0, i32 2
  %18 = load ptr, ptr %17, align 8
  %19 = load i32, ptr %2, align 4
  %20 = sub i32 %19, 1
  %21 = sext i32 %20 to i64
  %22 = getelementptr %struct.s_x2node, ptr %18, i64 %21
  %23 = getelementptr inbounds nuw %struct.s_x2node, ptr %22, i32 0, i32 0
  %24 = load ptr, ptr %23, align 8
  store ptr %24, ptr %3, align 8
  br label %26

25:                                               ; preds = %9, %6, %1
  store ptr null, ptr %3, align 8
  br label %26

26:                                               ; preds = %25, %15
  %27 = load ptr, ptr %3, align 8
  call void @llvm.lifetime.end.p0(i64 8, ptr %3) #18
  ret ptr %27
}