; Function Attrs: mustprogress nofree norecurse nosync nounwind null_pointer_is_valid sspstrong willreturn memory(read, inaccessiblemem: none) uwtable
define hidden ptr @Symbol_Nth(i32 noundef %0) local_unnamed_addr #19 {
  %2 = load ptr, ptr @x2a, align 8
  %3 = icmp ne ptr %2, null
  %4 = icmp sgt i32 %0, 0
  %or.cond = and i1 %4, %3
  br i1 %or.cond, label %5, label %15

5:                                                ; preds = %1
  %6 = getelementptr inbounds nuw i8, ptr %2, i64 4
  %7 = load i32, ptr %6, align 4
  %.not = icmp sgt i32 %0, %7
  br i1 %.not, label %15, label %8

8:                                                ; preds = %5
  %9 = getelementptr inbounds nuw i8, ptr %2, i64 8
  %10 = load ptr, ptr %9, align 8
  %11 = zext nneg i32 %0 to i64
  %12 = getelementptr %struct.s_x2node, ptr %10, i64 %11
  %13 = getelementptr i8, ptr %12, i64 -32
  %14 = load ptr, ptr %13, align 8
  br label %15

15:                                               ; preds = %1, %5, %8
  %.0 = phi ptr [ %14, %8 ], [ null, %5 ], [ null, %1 ]
  ret ptr %.0
}